target datalayout = "e-m:e-p270:32:32-p271:32:32-p272:64:64-i64:64-i128:128-f80:128-n8:16:32:64-S128"
target triple = "x86_64-pc-linux-gnu"

%struct.job_record = type { i32, ptr, ptr, ptr, ptr, i16, i32, i32, i32, ptr, i32, ptr, ptr, i16, ptr, double, i64, ptr, ptr, ptr, ptr, ptr, ptr, i32, ptr, i32, i64, i64, i32, i32, ptr, i16, i64, i64, i8, i32, ptr, ptr, ptr, ptr, ptr, ptr, ptr, ptr, i32, ptr, ptr, i32, ptr, i32, ptr, i32, ptr, i32, ptr, ptr, ptr, ptr, ptr, ptr, i32, i16, i64, ptr, ptr, ptr, ptr, %struct.acct_policy_limit_set_t, i16, ptr, ptr, ptr, ptr, ptr, i32, ptr, ptr, ptr, ptr, ptr, i32, i32, ptr, ptr, ptr, i16, ptr, ptr, i8, ptr, ptr, i64, i64, i8, i32, i32, i8, i32, ptr, i32, i64, i32, ptr, ptr, ptr, i8, i16, i64, i32, ptr, ptr, ptr, ptr, ptr, i16, i32, ptr, ptr, ptr, ptr, i32, ptr, i32, i16, i64, ptr, i32, i32, ptr, i64, ptr, ptr, i64, i32, i32, i64, i32, i32, ptr, ptr, ptr, ptr, ptr, ptr, ptr, ptr, ptr, ptr, ptr, ptr, i32, ptr, i16, i16, i16, i16, ptr, i32, i32, i8, i64 }
%struct.acct_policy_limit_set_t = type { i16, i16, ptr }

@hash_table_size = internal global i32 0, align 4
@job_array_hash_j = internal global ptr null, align 8
@job_hash = internal global ptr null, align 8

; Function Attrs: nounwind uwtable
define dso_local ptr @find_job_record(i32 noundef %0) #0 {
  %2 = alloca ptr, align 8
  %3 = alloca i32, align 4
  %4 = alloca ptr, align 8
  %5 = alloca i32, align 4
  store i32 %0, ptr %3, align 4
  call void @llvm.lifetime.start.p0(i64 8, ptr %4) #13
  %6 = load ptr, ptr @job_hash, align 8
  %7 = load i32, ptr %3, align 4
  %8 = load i32, ptr @hash_table_size, align 4
  %9 = urem i32 %7, %8
  %10 = zext i32 %9 to i64
  %11 = getelementptr inbounds nuw ptr, ptr %6, i64 %10
  %12 = load ptr, ptr %11, align 8
  store ptr %12, ptr %4, align 8
  br label %13

13:                                               ; preds = %24, %1
  %14 = load ptr, ptr %4, align 8
  %15 = icmp ne ptr %14, null
  br i1 %15, label %16, label %28

16:                                               ; preds = %13
  %17 = load ptr, ptr %4, align 8
  %18 = getelementptr inbounds nuw %struct.job_record, ptr %17, i32 0, i32 53
  %19 = load i32, ptr %18, align 8
  %20 = load i32, ptr %3, align 4
  %21 = icmp eq i32 %19, %20
  br i1 %21, label %22, label %24

22:                                               ; preds = %16
  %23 = load ptr, ptr %4, align 8
  store ptr %23, ptr %2, align 8
  store i32 1, ptr %5, align 4
  br label %29

24:                                               ; preds = %16
  %25 = load ptr, ptr %4, align 8
  %26 = getelementptr inbounds nuw %struct.job_record, ptr %25, i32 0, i32 55
  %27 = load ptr, ptr %26, align 8
  store ptr %27, ptr %4, align 8
  br label %13, !llvm.loop !14

28:                                               ; preds = %13
  store ptr null, ptr %2, align 8
  store i32 1, ptr %5, align 4
  br label %29

29:                                               ; preds = %28, %22
  call void @llvm.lifetime.end.p0(i64 8, ptr %4) #13
  %30 = load ptr, ptr %2, align 8
  ret ptr %30
}

; Function Attrs: nounwind uwtable
define dso_local zeroext i1 @test_job_array_finished(i32 noundef %0) #0 {
  %2 = alloca i1, align 1
  %3 = alloca i32, align 4
  %4 = alloca ptr, align 8
  %5 = alloca i32, align 4
  %6 = alloca i32, align 4
  store i32 %0, ptr %3, align 4
  call void @llvm.lifetime.start.p0(i64 8, ptr %4) #13
  call void @llvm.lifetime.start.p0(i64 4, ptr %5) #13
  %7 = load i32, ptr %3, align 4
  %8 = call ptr @find_job_record(i32 noundef %7)
  store ptr %8, ptr %4, align 8
  %9 = load ptr, ptr %4, align 8
  %10 = icmp ne ptr %9, null
  br i1 %10, label %11, label %19

11:                                               ; preds = %1
  %12 = load ptr, ptr %4, align 8
  %13 = getelementptr inbounds nuw %struct.job_record, ptr %12, i32 0, i32 60
  %14 = load i32, ptr %13, align 8
  %15 = and i32 %14, 255
  %16 = icmp ugt i32 %15, 2
  br i1 %16, label %18, label %17

17:                                               ; preds = %11
  store i1 false, ptr %2, align 1
  store i32 1, ptr %6, align 4
  br label %50

18:                                               ; preds = %11
  br label %19

19:                                               ; preds = %18, %1
  %20 = load i32, ptr %3, align 4
  %21 = load i32, ptr @hash_table_size, align 4
  %22 = urem i32 %20, %21
  store i32 %22, ptr %5, align 4
  %23 = load ptr, ptr @job_array_hash_j, align 8
  %24 = load i32, ptr %5, align 4
  %25 = sext i32 %24 to i64
  %26 = getelementptr inbounds ptr, ptr %23, i64 %25
  %27 = load ptr, ptr %26, align 8
  store ptr %27, ptr %4, align 8
  br label %28

28:                                               ; preds = %45, %19
  %29 = load ptr, ptr %4, align 8
  %30 = icmp ne ptr %29, null
  br i1 %30, label %31, label %49

31:                                               ; preds = %28
  %32 = load ptr, ptr %4, align 8
  %33 = getelementptr inbounds nuw %struct.job_record, ptr %32, i32 0, i32 7
  %34 = load i32, ptr %33, align 8
  %35 = load i32, ptr %3, align 4
  %36 = icmp eq i32 %34, %35
  br i1 %36, label %37, label %45

37:                                               ; preds = %31
  %38 = load ptr, ptr %4, align 8
  %39 = getelementptr inbounds nuw %struct.job_record, ptr %38, i32 0, i32 60
  %40 = load i32, ptr %39, align 8
  %41 = and i32 %40, 255
  %42 = icmp ugt i32 %41, 2
  br i1 %42, label %44, label %43

43:                                               ; preds = %37
  store i1 false, ptr %2, align 1
  store i32 1, ptr %6, align 4
  br label %50

44:                                               ; preds = %37
  br label %45

45:                                               ; preds = %44, %31
  %46 = load ptr, ptr %4, align 8
  %47 = getelementptr inbounds nuw %struct.job_record, ptr %46, i32 0, i32 56
  %48 = load ptr, ptr %47, align 8
  store ptr %48, ptr %4, align 8
  br label %28, !llvm.loop !17

49:                                               ; preds = %28
  store i1 true, ptr %2, align 1
  store i32 1, ptr %6, align 4
  br label %50

50:                                               ; preds = %49, %43, %17
  call void @llvm.lifetime.end.p0(i64 4, ptr %5) #13
  call void @llvm.lifetime.end.p0(i64 8, ptr %4) #13
  %51 = load i1, ptr %2, align 1
  ret i1 %51
}