; Function Attrs: nofree norecurse nosync nounwind memory(read, inaccessiblemem: none) uwtable
define dso_local noundef zeroext i1 @test_job_array_finished(i32 noundef %0) local_unnamed_addr #10 {
  %2 = load ptr, ptr @job_hash, align 8
  %3 = load i32, ptr @hash_table_size, align 4
  %4 = urem i32 %0, %3
  %5 = zext i32 %4 to i64
  %6 = getelementptr inbounds nuw ptr, ptr %2, i64 %5
  %.07.i = load ptr, ptr %6, align 8
  %.not8.i = icmp eq ptr %.07.i, null
  br i1 %.not8.i, label %find_job_record.exit.thread, label %.lr.ph.i

.lr.ph.i:                                         ; preds = %1, %10
  %.09.i = phi ptr [ %.0.i, %10 ], [ %.07.i, %1 ]
  %7 = getelementptr inbounds nuw i8, ptr %.09.i, i64 392
  %8 = load i32, ptr %7, align 8
  %9 = icmp eq i32 %8, %0
  br i1 %9, label %find_job_record.exit, label %10

10:                                               ; preds = %.lr.ph.i
  %11 = getelementptr inbounds nuw i8, ptr %.09.i, i64 408
  %.0.i = load ptr, ptr %11, align 8
  %.not.i = icmp eq ptr %.0.i, null
  br i1 %.not.i, label %find_job_record.exit.thread, label %.lr.ph.i, !llvm.loop !14

find_job_record.exit:                             ; preds = %.lr.ph.i
  %12 = getelementptr inbounds nuw i8, ptr %.09.i, i64 448
  %13 = load i32, ptr %12, align 8
  %14 = and i32 %13, 255
  %15 = icmp samesign ugt i32 %14, 2
  br i1 %15, label %find_job_record.exit.thread, label %.loopexit

find_job_record.exit.thread:                      ; preds = %10, %1, %find_job_record.exit
  %16 = load ptr, ptr @job_array_hash_j, align 8
  %17 = sext i32 %4 to i64
  %18 = getelementptr inbounds ptr, ptr %16, i64 %17
  %.01016 = load ptr, ptr %18, align 8
  %.not1217 = icmp eq ptr %.01016, null
  br i1 %.not1217, label %.loopexit, label %.lr.ph

.lr.ph:                                           ; preds = %find_job_record.exit.thread, %27
  %.01018 = phi ptr [ %.010, %27 ], [ %.01016, %find_job_record.exit.thread ]
  %19 = getelementptr inbounds nuw i8, ptr %.01018, i64 48
  %20 = load i32, ptr %19, align 8
  %21 = icmp eq i32 %20, %0
  br i1 %21, label %22, label %27

22:                                               ; preds = %.lr.ph
  %23 = getelementptr inbounds nuw i8, ptr %.01018, i64 448
  %24 = load i32, ptr %23, align 8
  %25 = and i32 %24, 255
  %26 = icmp samesign ugt i32 %25, 2
  br i1 %26, label %27, label %.loopexit

27:                                               ; preds = %22, %.lr.ph
  %28 = getelementptr inbounds nuw i8, ptr %.01018, i64 416
  %.010 = load ptr, ptr %28, align 8
  %.not12 = icmp eq ptr %.010, null
  br i1 %.not12, label %.loopexit, label %.lr.ph, !llvm.loop !17

.loopexit:                                        ; preds = %22, %27, %find_job_record.exit.thread, %find_job_record.exit
  %.0 = phi i1 [ false, %find_job_record.exit ], [ true, %find_job_record.exit.thread ], [ false, %22 ], [ true, %27 ]
  ret i1 %.0
}